; Function Attrs: mustprogress uwtable
define hidden void @_ZN7testing8internal14CmpHelperSTREQEPKcS2_S2_S2_(ptr dead_on_unwind noalias writable writeonly sret(%"class.testing::AssertionResult") align 8 captures(none) %0, ptr noundef %1, ptr noundef %2, ptr noundef %3, ptr noundef %4) local_unnamed_addr #3 personality ptr @__gxx_personality_v0 {
  %6 = alloca ptr, align 8
  %7 = alloca ptr, align 8
  %8 = alloca %"class.std::__cxx11::basic_string", align 8
  %9 = alloca %"class.std::__cxx11::basic_string", align 8
  store ptr %3, ptr %6, align 8
  store ptr %4, ptr %7, align 8
  %10 = icmp eq ptr %3, null
  %11 = icmp eq ptr %4, null
  %brmerge.i = or i1 %10, %11
  br i1 %brmerge.i, label %_ZN7testing8internal6String13CStringEqualsEPKcS3_.exit, label %12

12:                                               ; preds = %5
  %13 = tail call i32 @strcmp(ptr noundef nonnull readonly dereferenceable(1) %3, ptr noundef nonnull readonly dereferenceable(1) %4) #57
  %14 = icmp eq i32 %13, 0
  br i1 %14, label %15, label %17

_ZN7testing8internal6String13CStringEqualsEPKcS3_.exit: ; preds = %5
  %.mux.i = and i1 %10, %11
  br i1 %.mux.i, label %15, label %17

15:                                               ; preds = %12, %_ZN7testing8internal6String13CStringEqualsEPKcS3_.exit
  store i8 1, ptr %0, align 8, !alias.scope !132
  %16 = getelementptr inbounds nuw i8, ptr %0, i64 8
  store ptr null, ptr %16, align 8, !alias.scope !132
  br label %48

17:                                               ; preds = %12, %_ZN7testing8internal6String13CStringEqualsEPKcS3_.exit
  call void @llvm.lifetime.start.p0(i64 32, ptr nonnull %8) #53
  call void @_ZN7testing13PrintToStringIPKcEENSt7__cxx1112basic_stringIcSt11char_traitsIcESaIcEEERKT_(ptr dead_on_unwind nonnull writable sret(%"class.std::__cxx11::basic_string") align 8 %8, ptr noundef nonnull align 8 dereferenceable(8) %6)
  call void @llvm.lifetime.start.p0(i64 32, ptr nonnull %9) #53
  invoke void @_ZN7testing13PrintToStringIPKcEENSt7__cxx1112basic_stringIcSt11char_traitsIcESaIcEEERKT_(ptr dead_on_unwind nonnull writable sret(%"class.std::__cxx11::basic_string") align 8 %9, ptr noundef nonnull align 8 dereferenceable(8) %7)
          to label %18 unwind label %32

18:                                               ; preds = %17
  invoke void @_ZN7testing8internal9EqFailureEPKcS2_RKNSt7__cxx1112basic_stringIcSt11char_traitsIcESaIcEEESA_b(ptr dead_on_unwind writable sret(%"class.testing::AssertionResult") align 8 %0, ptr noundef %1, ptr noundef %2, ptr noundef nonnull align 8 dereferenceable(32) %8, ptr noundef nonnull align 8 dereferenceable(32) %9, i1 noundef zeroext false)
          to label %19 unwind label %34

19:                                               ; preds = %18
  %20 = load ptr, ptr %9, align 8
  %21 = getelementptr inbounds nuw i8, ptr %9, i64 16
  %22 = icmp eq ptr %20, %21
  br i1 %22, label %_ZNKSt7__cxx1112basic_stringIcSt11char_traitsIcESaIcEE11_M_is_localEv.exit.thread.i.i, label %_ZNKSt7__cxx1112basic_stringIcSt11char_traitsIcESaIcEE11_M_is_localEv.exit.i.i

_ZNKSt7__cxx1112basic_stringIcSt11char_traitsIcESaIcEE11_M_is_localEv.exit.thread.i.i: ; preds = %19
  %23 = getelementptr inbounds nuw i8, ptr %9, i64 8
  %24 = load i64, ptr %23, align 8
  %25 = icmp ult i64 %24, 16
  call void @llvm.assume(i1 %25)
  br label %_ZNSt7__cxx1112basic_stringIcSt11char_traitsIcESaIcEED2Ev.exit

_ZNKSt7__cxx1112basic_stringIcSt11char_traitsIcESaIcEE11_M_is_localEv.exit.i.i: ; preds = %19
  call void @_ZdlPv(ptr noundef %20) #54
  br label %_ZNSt7__cxx1112basic_stringIcSt11char_traitsIcESaIcEED2Ev.exit

_ZNSt7__cxx1112basic_stringIcSt11char_traitsIcESaIcEED2Ev.exit: ; preds = %_ZNKSt7__cxx1112basic_stringIcSt11char_traitsIcESaIcEE11_M_is_localEv.exit.thread.i.i, %_ZNKSt7__cxx1112basic_stringIcSt11char_traitsIcESaIcEE11_M_is_localEv.exit.i.i
  call void @llvm.lifetime.end.p0(i64 32, ptr nonnull %9) #53
  %26 = load ptr, ptr %8, align 8
  %27 = getelementptr inbounds nuw i8, ptr %8, i64 16
  %28 = icmp eq ptr %26, %27
  br i1 %28, label %_ZNKSt7__cxx1112basic_stringIcSt11char_traitsIcESaIcEE11_M_is_localEv.exit.thread.i.i6, label %_ZNKSt7__cxx1112basic_stringIcSt11char_traitsIcESaIcEE11_M_is_localEv.exit.i.i5

_ZNKSt7__cxx1112basic_stringIcSt11char_traitsIcESaIcEE11_M_is_localEv.exit.thread.i.i6: ; preds = %_ZNSt7__cxx1112basic_stringIcSt11char_traitsIcESaIcEED2Ev.exit
  %29 = getelementptr inbounds nuw i8, ptr %8, i64 8
  %30 = load i64, ptr %29, align 8
  %31 = icmp ult i64 %30, 16
  call void @llvm.assume(i1 %31)
  br label %_ZNSt7__cxx1112basic_stringIcSt11char_traitsIcESaIcEED2Ev.exit7

_ZNKSt7__cxx1112basic_stringIcSt11char_traitsIcESaIcEE11_M_is_localEv.exit.i.i5: ; preds = %_ZNSt7__cxx1112basic_stringIcSt11char_traitsIcESaIcEED2Ev.exit
  call void @_ZdlPv(ptr noundef %26) #54
  br label %_ZNSt7__cxx1112basic_stringIcSt11char_traitsIcESaIcEED2Ev.exit7

_ZNSt7__cxx1112basic_stringIcSt11char_traitsIcESaIcEED2Ev.exit7: ; preds = %_ZNKSt7__cxx1112basic_stringIcSt11char_traitsIcESaIcEE11_M_is_localEv.exit.thread.i.i6, %_ZNKSt7__cxx1112basic_stringIcSt11char_traitsIcESaIcEE11_M_is_localEv.exit.i.i5
  call void @llvm.lifetime.end.p0(i64 32, ptr nonnull %8) #53
  br label %48

32:                                               ; preds = %17
  %33 = landingpad { ptr, i32 }
          cleanup
  br label %_ZNSt7__cxx1112basic_stringIcSt11char_traitsIcESaIcEED2Ev.exit10

34:                                               ; preds = %18
  %35 = landingpad { ptr, i32 }
          cleanup
  %36 = load ptr, ptr %9, align 8
  %37 = getelementptr inbounds nuw i8, ptr %9, i64 16
  %38 = icmp eq ptr %36, %37
  br i1 %38, label %_ZNKSt7__cxx1112basic_stringIcSt11char_traitsIcESaIcEE11_M_is_localEv.exit.thread.i.i9, label %_ZNKSt7__cxx1112basic_stringIcSt11char_traitsIcESaIcEE11_M_is_localEv.exit.i.i8

_ZNKSt7__cxx1112basic_stringIcSt11char_traitsIcESaIcEE11_M_is_localEv.exit.thread.i.i9: ; preds = %34
  %39 = getelementptr inbounds nuw i8, ptr %9, i64 8
  %40 = load i64, ptr %39, align 8
  %41 = icmp ult i64 %40, 16
  call void @llvm.assume(i1 %41)
  br label %_ZNSt7__cxx1112basic_stringIcSt11char_traitsIcESaIcEED2Ev.exit10

_ZNKSt7__cxx1112basic_stringIcSt11char_traitsIcESaIcEE11_M_is_localEv.exit.i.i8: ; preds = %34
  call void @_ZdlPv(ptr noundef %36) #54
  br label %_ZNSt7__cxx1112basic_stringIcSt11char_traitsIcESaIcEED2Ev.exit10

_ZNSt7__cxx1112basic_stringIcSt11char_traitsIcESaIcEED2Ev.exit10: ; preds = %_ZNKSt7__cxx1112basic_stringIcSt11char_traitsIcESaIcEE11_M_is_localEv.exit.i.i8, %_ZNKSt7__cxx1112basic_stringIcSt11char_traitsIcESaIcEE11_M_is_localEv.exit.thread.i.i9, %32
  %.pn = phi { ptr, i32 } [ %33, %32 ], [ %35, %_ZNKSt7__cxx1112basic_stringIcSt11char_traitsIcESaIcEE11_M_is_localEv.exit.thread.i.i9 ], [ %35, %_ZNKSt7__cxx1112basic_stringIcSt11char_traitsIcESaIcEE11_M_is_localEv.exit.i.i8 ]
  call void @llvm.lifetime.end.p0(i64 32, ptr nonnull %9) #53
  %42 = load ptr, ptr %8, align 8
  %43 = getelementptr inbounds nuw i8, ptr %8, i64 16
  %44 = icmp eq ptr %42, %43
  br i1 %44, label %_ZNKSt7__cxx1112basic_stringIcSt11char_traitsIcESaIcEE11_M_is_localEv.exit.thread.i.i12, label %_ZNKSt7__cxx1112basic_stringIcSt11char_traitsIcESaIcEE11_M_is_localEv.exit.i.i11

_ZNKSt7__cxx1112basic_stringIcSt11char_traitsIcESaIcEE11_M_is_localEv.exit.thread.i.i12: ; preds = %_ZNSt7__cxx1112basic_stringIcSt11char_traitsIcESaIcEED2Ev.exit10
  %45 = getelementptr inbounds nuw i8, ptr %8, i64 8
  %46 = load i64, ptr %45, align 8
  %47 = icmp ult i64 %46, 16
  call void @llvm.assume(i1 %47)
  br label %_ZNSt7__cxx1112basic_stringIcSt11char_traitsIcESaIcEED2Ev.exit13

_ZNKSt7__cxx1112basic_stringIcSt11char_traitsIcESaIcEE11_M_is_localEv.exit.i.i11: ; preds = %_ZNSt7__cxx1112basic_stringIcSt11char_traitsIcESaIcEED2Ev.exit10
  call void @_ZdlPv(ptr noundef %42) #54
  br label %_ZNSt7__cxx1112basic_stringIcSt11char_traitsIcESaIcEED2Ev.exit13

_ZNSt7__cxx1112basic_stringIcSt11char_traitsIcESaIcEED2Ev.exit13: ; preds = %_ZNKSt7__cxx1112basic_stringIcSt11char_traitsIcESaIcEE11_M_is_localEv.exit.thread.i.i12, %_ZNKSt7__cxx1112basic_stringIcSt11char_traitsIcESaIcEE11_M_is_localEv.exit.i.i11
  call void @llvm.lifetime.end.p0(i64 32, ptr nonnull %8) #53
  resume { ptr, i32 } %.pn

48:                                               ; preds = %_ZNSt7__cxx1112basic_stringIcSt11char_traitsIcESaIcEED2Ev.exit7, %15
  ret void
}